; Function Attrs: mustprogress nounwind uwtable
define hidden void @_ZN16SATBMarkQueueSet23abandon_partial_markingEv(ptr noundef nonnull align 8 dereferenceable(393) %0) local_unnamed_addr #0 align 2 {
  %2 = alloca %class.AbandonThreadQueueClosure, align 8
  %3 = getelementptr inbounds i8, ptr %0, i64 272
  store volatile i64 0, ptr %3, align 8
  %4 = getelementptr inbounds i8, ptr %0, i64 144
  %5 = tail call noundef ptr asm sideeffect "xchgq ($2),$0", "=r,0,r,~{memory},~{dirflag},~{fpsr},~{flags}"(ptr null, ptr nonnull %4) #10, !srcloc !6
  %.not6.i = icmp eq ptr %5, null
  br i1 %.not6.i, label %_ZN16SATBMarkQueueSet25abandon_completed_buffersEv.exit, label %.lr.ph.i

.lr.ph.i:                                         ; preds = %1, %.lr.ph.i
  %.07.i = phi ptr [ %7, %.lr.ph.i ], [ %5, %1 ]
  %6 = getelementptr inbounds i8, ptr %.07.i, i64 8
  %7 = load volatile ptr, ptr %6, align 8
  store volatile ptr null, ptr %6, align 8
  tail call void @_ZN11PtrQueueSet17deallocate_bufferEP10BufferNode(ptr noundef nonnull align 8 dereferenceable(16) %0, ptr noundef nonnull %.07.i) #10
  %.not.i = icmp eq ptr %7, null
  br i1 %.not.i, label %_ZN16SATBMarkQueueSet25abandon_completed_buffersEv.exit, label %.lr.ph.i, !llvm.loop !7

_ZN16SATBMarkQueueSet25abandon_completed_buffersEv.exit: ; preds = %.lr.ph.i, %1
  store ptr getelementptr inbounds inrange(-16, 8) (i8, ptr @_ZTVZN16SATBMarkQueueSet23abandon_partial_markingEvE25AbandonThreadQueueClosure, i64 16), ptr %2, align 8
  %8 = getelementptr inbounds i8, ptr %2, i64 8
  store ptr %0, ptr %8, align 8
  call void @_ZN7Threads10threads_doEP13ThreadClosure(ptr noundef nonnull %2) #10
  ret void
}